target datalayout = "e-m:e-p270:32:32-p271:32:32-p272:64:64-i64:64-i128:128-f80:128-n8:16:32:64-S128"
target triple = "x86_64-pc-linux-gnu"

@.str.109 = private unnamed_addr constant [3 x i8] c"CN\00", align 1
@.str.110 = private unnamed_addr constant [3 x i8] c"UM\00", align 1
@.str.111 = private unnamed_addr constant [3 x i8] c"BM\00", align 1
@.str.112 = private unnamed_addr constant [3 x i8] c"DF\00", align 1
@.str.113 = private unnamed_addr constant [3 x i8] c"HF\00", align 1
@.str.114 = private unnamed_addr constant [3 x i8] c"NC\00", align 1
@.str.115 = private unnamed_addr constant [3 x i8] c"BC\00", align 1
@.str.116 = private unnamed_addr constant [3 x i8] c"UC\00", align 1
@.str.117 = private unnamed_addr constant [3 x i8] c"CR\00", align 1
@.str.118 = private unnamed_addr constant [3 x i8] c"CE\00", align 1
@.str.119 = private unnamed_addr constant [3 x i8] c"CU\00", align 1
@.str.120 = private unnamed_addr constant [3 x i8] c"IP\00", align 1
@.str.121 = private unnamed_addr constant [3 x i8] c"DC\00", align 1
@.str.122 = private unnamed_addr constant [3 x i8] c"RO\00", align 1
@.str.123 = private unnamed_addr constant [3 x i8] c"CA\00", align 1
@.str.124 = private unnamed_addr constant [3 x i8] c"AD\00", align 1
@.str.125 = private unnamed_addr constant [3 x i8] c"DE\00", align 1
@.str.126 = private unnamed_addr constant [3 x i8] c"CY\00", align 1
@.str.127 = private unnamed_addr constant [3 x i8] c"ER\00", align 1
@.str.128 = private unnamed_addr constant [3 x i8] c"PV\00", align 1
@.str.129 = private unnamed_addr constant [3 x i8] c"IS\00", align 1
@.str.130 = private unnamed_addr constant [3 x i8] c"IE\00", align 1
@.str.131 = private unnamed_addr constant [3 x i8] c"US\00", align 1
@.str.132 = private unnamed_addr constant [3 x i8] c"NR\00", align 1
@.str.133 = private unnamed_addr constant [3 x i8] c"UE\00", align 1
@.str.134 = private unnamed_addr constant [3 x i8] c"CO\00", align 1
@.str.135 = private unnamed_addr constant [3 x i8] c"UN\00", align 1
@.str.136 = private unnamed_addr constant [3 x i8] c"BR\00", align 1
@.str.137 = private unnamed_addr constant [3 x i8] c"BH\00", align 1
@.str.138 = private unnamed_addr constant [3 x i8] c"UP\00", align 1
@.str.139 = private unnamed_addr constant [3 x i8] c"UK\00", align 1

; Function Attrs: nounwind uwtable
define ptr @SSL_alert_desc_string(i32 noundef %0) #0 {
  %2 = alloca ptr, align 8
  %3 = alloca i32, align 4
  store i32 %0, ptr %3, align 4, !tbaa !19
  %4 = load i32, ptr %3, align 4, !tbaa !19
  %5 = and i32 %4, 255
  switch i32 %5, label %36 [
    i32 0, label %6
    i32 10, label %7
    i32 20, label %8
    i32 30, label %9
    i32 40, label %10
    i32 41, label %11
    i32 42, label %12
    i32 43, label %13
    i32 44, label %14
    i32 45, label %15
    i32 46, label %16
    i32 47, label %17
    i32 21, label %18
    i32 22, label %19
    i32 48, label %20
    i32 49, label %21
    i32 50, label %22
    i32 51, label %23
    i32 60, label %24
    i32 70, label %25
    i32 71, label %26
    i32 80, label %27
    i32 90, label %28
    i32 100, label %29
    i32 110, label %30
    i32 111, label %31
    i32 112, label %32
    i32 113, label %33
    i32 114, label %34
    i32 115, label %35
  ]

6:                                                ; preds = %1
  store ptr @.str.109, ptr %2, align 8
  br label %37

7:                                                ; preds = %1
  store ptr @.str.110, ptr %2, align 8
  br label %37

8:                                                ; preds = %1
  store ptr @.str.111, ptr %2, align 8
  br label %37

9:                                                ; preds = %1
  store ptr @.str.112, ptr %2, align 8
  br label %37

10:                                               ; preds = %1
  store ptr @.str.113, ptr %2, align 8
  br label %37

11:                                               ; preds = %1
  store ptr @.str.114, ptr %2, align 8
  br label %37

12:                                               ; preds = %1
  store ptr @.str.115, ptr %2, align 8
  br label %37

13:                                               ; preds = %1
  store ptr @.str.116, ptr %2, align 8
  br label %37

14:                                               ; preds = %1
  store ptr @.str.117, ptr %2, align 8
  br label %37

15:                                               ; preds = %1
  store ptr @.str.118, ptr %2, align 8
  br label %37

16:                                               ; preds = %1
  store ptr @.str.119, ptr %2, align 8
  br label %37

17:                                               ; preds = %1
  store ptr @.str.120, ptr %2, align 8
  br label %37

18:                                               ; preds = %1
  store ptr @.str.121, ptr %2, align 8
  br label %37

19:                                               ; preds = %1
  store ptr @.str.122, ptr %2, align 8
  br label %37

20:                                               ; preds = %1
  store ptr @.str.123, ptr %2, align 8
  br label %37

21:                                               ; preds = %1
  store ptr @.str.124, ptr %2, align 8
  br label %37

22:                                               ; preds = %1
  store ptr @.str.125, ptr %2, align 8
  br label %37

23:                                               ; preds = %1
  store ptr @.str.126, ptr %2, align 8
  br label %37

24:                                               ; preds = %1
  store ptr @.str.127, ptr %2, align 8
  br label %37

25:                                               ; preds = %1
  store ptr @.str.128, ptr %2, align 8
  br label %37

26:                                               ; preds = %1
  store ptr @.str.129, ptr %2, align 8
  br label %37

27:                                               ; preds = %1
  store ptr @.str.130, ptr %2, align 8
  br label %37

28:                                               ; preds = %1
  store ptr @.str.131, ptr %2, align 8
  br label %37

29:                                               ; preds = %1
  store ptr @.str.132, ptr %2, align 8
  br label %37

30:                                               ; preds = %1
  store ptr @.str.133, ptr %2, align 8
  br label %37

31:                                               ; preds = %1
  store ptr @.str.134, ptr %2, align 8
  br label %37

32:                                               ; preds = %1
  store ptr @.str.135, ptr %2, align 8
  br label %37

33:                                               ; preds = %1
  store ptr @.str.136, ptr %2, align 8
  br label %37

34:                                               ; preds = %1
  store ptr @.str.137, ptr %2, align 8
  br label %37

35:                                               ; preds = %1
  store ptr @.str.138, ptr %2, align 8
  br label %37

36:                                               ; preds = %1
  store ptr @.str.139, ptr %2, align 8
  br label %37

37:                                               ; preds = %36, %35, %34, %33, %32, %31, %30, %29, %28, %27, %26, %25, %24, %23, %22, %21, %20, %19, %18, %17, %16, %15, %14, %13, %12, %11, %10, %9, %8, %7, %6
  %38 = load ptr, ptr %2, align 8
  ret ptr %38
}