; Function Attrs: mustprogress nofree norecurse nosync nounwind willreturn memory(none) uwtable
define noundef nonnull ptr @SSL_alert_desc_string(i32 noundef %0) local_unnamed_addr #2 {
  %trunc = trunc i32 %0 to i8
  switch i8 %trunc, label %31 [
    i8 0, label %32
    i8 10, label %2
    i8 20, label %3
    i8 30, label %4
    i8 40, label %5
    i8 41, label %6
    i8 42, label %7
    i8 43, label %8
    i8 44, label %9
    i8 45, label %10
    i8 46, label %11
    i8 47, label %12
    i8 21, label %13
    i8 22, label %14
    i8 48, label %15
    i8 49, label %16
    i8 50, label %17
    i8 51, label %18
    i8 60, label %19
    i8 70, label %20
    i8 71, label %21
    i8 80, label %22
    i8 90, label %23
    i8 100, label %24
    i8 110, label %25
    i8 111, label %26
    i8 112, label %27
    i8 113, label %28
    i8 114, label %29
    i8 115, label %30
  ]

2:                                                ; preds = %1
  br label %32

3:                                                ; preds = %1
  br label %32

4:                                                ; preds = %1
  br label %32

5:                                                ; preds = %1
  br label %32

6:                                                ; preds = %1
  br label %32

7:                                                ; preds = %1
  br label %32

8:                                                ; preds = %1
  br label %32

9:                                                ; preds = %1
  br label %32

10:                                               ; preds = %1
  br label %32

11:                                               ; preds = %1
  br label %32

12:                                               ; preds = %1
  br label %32

13:                                               ; preds = %1
  br label %32

14:                                               ; preds = %1
  br label %32

15:                                               ; preds = %1
  br label %32

16:                                               ; preds = %1
  br label %32

17:                                               ; preds = %1
  br label %32

18:                                               ; preds = %1
  br label %32

19:                                               ; preds = %1
  br label %32

20:                                               ; preds = %1
  br label %32

21:                                               ; preds = %1
  br label %32

22:                                               ; preds = %1
  br label %32

23:                                               ; preds = %1
  br label %32

24:                                               ; preds = %1
  br label %32

25:                                               ; preds = %1
  br label %32

26:                                               ; preds = %1
  br label %32

27:                                               ; preds = %1
  br label %32

28:                                               ; preds = %1
  br label %32

29:                                               ; preds = %1
  br label %32

30:                                               ; preds = %1
  br label %32

31:                                               ; preds = %1
  br label %32

32:                                               ; preds = %1, %31, %30, %29, %28, %27, %26, %25, %24, %23, %22, %21, %20, %19, %18, %17, %16, %15, %14, %13, %12, %11, %10, %9, %8, %7, %6, %5, %4, %3, %2
  %.0 = phi ptr [ @.str.139, %31 ], [ @.str.138, %30 ], [ @.str.137, %29 ], [ @.str.136, %28 ], [ @.str.135, %27 ], [ @.str.134, %26 ], [ @.str.133, %25 ], [ @.str.132, %24 ], [ @.str.131, %23 ], [ @.str.130, %22 ], [ @.str.129, %21 ], [ @.str.128, %20 ], [ @.str.127, %19 ], [ @.str.126, %18 ], [ @.str.125, %17 ], [ @.str.124, %16 ], [ @.str.123, %15 ], [ @.str.122, %14 ], [ @.str.121, %13 ], [ @.str.120, %12 ], [ @.str.119, %11 ], [ @.str.118, %10 ], [ @.str.117, %9 ], [ @.str.116, %8 ], [ @.str.115, %7 ], [ @.str.114, %6 ], [ @.str.113, %5 ], [ @.str.112, %4 ], [ @.str.111, %3 ], [ @.str.110, %2 ], [ @.str.109, %1 ]
  ret ptr %.0
}